target datalayout = "e-m:e-p270:32:32-p271:32:32-p272:64:64-i64:64-i128:128-f80:128-n8:16:32:64-S128"
target triple = "x86_64-pc-linux-gnu"

@.str.15 = private unnamed_addr constant [2 x i8] c"/\00", align 1
@.str.16 = private unnamed_addr constant [8 x i8] c"phar://\00", align 1

; Function Attrs: nounwind uwtable
define hidden i32 @phar_split_fname(ptr noundef %0, i64 noundef %1, ptr noundef %2, ptr noundef %3, ptr noundef %4, ptr noundef %5, i32 noundef %6, i32 noundef %7) #0 {
  %9 = alloca ptr, align 8
  %10 = alloca i64, align 8
  %11 = alloca i32, align 4
  %12 = alloca ptr, align 8
  %13 = alloca i64, align 8
  %14 = alloca ptr, align 8
  %15 = alloca ptr, align 8
  %16 = alloca ptr, align 8
  %17 = alloca ptr, align 8
  %18 = alloca i32, align 4
  %19 = alloca i32, align 4
  %20 = alloca ptr, align 8
  %21 = alloca i64, align 8
  store ptr %0, ptr %12, align 8
  store i64 %1, ptr %13, align 8
  store ptr %2, ptr %14, align 8
  store ptr %3, ptr %15, align 8
  store ptr %4, ptr %16, align 8
  store ptr %5, ptr %17, align 8
  store i32 %6, ptr %18, align 4
  store i32 %7, ptr %19, align 4
  %22 = load ptr, ptr %12, align 8
  %23 = load i64, ptr %13, align 8
  store ptr %22, ptr %9, align 8
  store i64 %23, ptr %10, align 8
  %24 = load i64, ptr %10, align 8
  %25 = load ptr, ptr %9, align 8
  %26 = call i64 @strlen(ptr noundef %25) #14
  %27 = icmp ne i64 %24, %26
  br i1 %27, label %28, label %29

28:                                               ; preds = %8
  store i32 -1, ptr %11, align 4
  br label %98

29:                                               ; preds = %8
  %30 = load ptr, ptr %12, align 8
  %31 = call i32 @strncasecmp(ptr noundef %30, ptr noundef @.str.16, i64 noundef 7) #14
  %32 = icmp ne i32 %31, 0
  br i1 %32, label %38, label %33

33:                                               ; preds = %29
  %34 = load ptr, ptr %12, align 8
  %35 = getelementptr inbounds i8, ptr %34, i64 7
  store ptr %35, ptr %12, align 8
  %36 = load i64, ptr %13, align 8
  %37 = sub i64 %36, 7
  store i64 %37, ptr %13, align 8
  br label %38

38:                                               ; preds = %33, %29
  store i64 0, ptr %21, align 8
  %39 = load ptr, ptr %12, align 8
  %40 = load i64, ptr %13, align 8
  %41 = load i32, ptr %18, align 4
  %42 = load i32, ptr %19, align 4
  %43 = call i32 @phar_detect_phar_fname_ext(ptr noundef %39, i64 noundef %40, ptr noundef %20, ptr noundef %21, i32 noundef %41, i32 noundef %42, i32 noundef 0)
  %44 = icmp eq i32 %43, -1
  br i1 %44, label %45, label %56

45:                                               ; preds = %38
  %46 = load i64, ptr %21, align 8
  %47 = icmp ne i64 %46, -1
  br i1 %47, label %48, label %55

48:                                               ; preds = %45
  %49 = load ptr, ptr %20, align 8
  %50 = icmp ne ptr %49, null
  br i1 %50, label %54, label %51

51:                                               ; preds = %48
  %52 = load ptr, ptr %12, align 8
  %53 = load ptr, ptr %14, align 8
  store ptr %52, ptr %53, align 8
  br label %54

54:                                               ; preds = %51, %48
  store i32 -1, ptr %11, align 4
  br label %98

55:                                               ; preds = %45
  store i64 0, ptr %21, align 8
  br label %56

56:                                               ; preds = %55, %38
  %57 = load ptr, ptr %20, align 8
  %58 = load ptr, ptr %12, align 8
  %59 = ptrtoint ptr %57 to i64
  %60 = ptrtoint ptr %58 to i64
  %61 = sub i64 %59, %60
  %62 = load i64, ptr %21, align 8
  %63 = add i64 %61, %62
  %64 = load ptr, ptr %15, align 8
  store i64 %63, ptr %64, align 8
  %65 = load ptr, ptr %12, align 8
  %66 = load ptr, ptr %15, align 8
  %67 = load i64, ptr %66, align 8
  %68 = call noalias ptr @_estrndup(ptr noundef %65, i64 noundef %67)
  %69 = load ptr, ptr %14, align 8
  store ptr %68, ptr %69, align 8
  %70 = load ptr, ptr %20, align 8
  %71 = load i64, ptr %21, align 8
  %72 = getelementptr inbounds i8, ptr %70, i64 %71
  %73 = load i8, ptr %72, align 1
  %74 = icmp ne i8 %73, 0
  br i1 %74, label %75, label %93

75:                                               ; preds = %56
  %76 = load i64, ptr %13, align 8
  %77 = load ptr, ptr %15, align 8
  %78 = load i64, ptr %77, align 8
  %79 = sub i64 %76, %78
  %80 = load ptr, ptr %17, align 8
  store i64 %79, ptr %80, align 8
  %81 = load ptr, ptr %20, align 8
  %82 = load i64, ptr %21, align 8
  %83 = getelementptr inbounds i8, ptr %81, i64 %82
  %84 = load ptr, ptr %17, align 8
  %85 = load i64, ptr %84, align 8
  %86 = call noalias ptr @_estrndup(ptr noundef %83, i64 noundef %85)
  %87 = load ptr, ptr %16, align 8
  store ptr %86, ptr %87, align 8
  %88 = load ptr, ptr %16, align 8
  %89 = load ptr, ptr %88, align 8
  %90 = load ptr, ptr %17, align 8
  %91 = call ptr @phar_fix_filepath(ptr noundef %89, ptr noundef %90, i32 noundef 0)
  %92 = load ptr, ptr %16, align 8
  store ptr %91, ptr %92, align 8
  br label %97

93:                                               ; preds = %56
  %94 = load ptr, ptr %17, align 8
  store i64 1, ptr %94, align 8
  %95 = call noalias ptr @_estrndup(ptr noundef @.str.15, i64 noundef 1)
  %96 = load ptr, ptr %16, align 8
  store ptr %95, ptr %96, align 8
  br label %97

97:                                               ; preds = %93, %75
  store i32 0, ptr %11, align 4
  br label %98

98:                                               ; preds = %97, %54, %28
  %99 = load i32, ptr %11, align 4
  ret i32 %99
}