; Function Attrs: nounwind uwtable
define hidden noundef i32 @phar_split_fname(ptr noundef %0, i64 noundef %1, ptr nocapture noundef writeonly %2, ptr nocapture noundef %3, ptr nocapture noundef writeonly %4, ptr nocapture noundef %5, i32 noundef %6, i32 noundef %7) local_unnamed_addr #0 {
  %9 = alloca ptr, align 8
  %10 = alloca i64, align 8
  %11 = tail call i64 @strlen(ptr noundef nonnull dereferenceable(1) %0) #24
  %.not = icmp eq i64 %11, %1
  br i1 %.not, label %12, label %39

12:                                               ; preds = %8
  %13 = tail call i32 @strncasecmp(ptr noundef %0, ptr noundef nonnull @.str.16, i64 noundef 7) #24
  %.not31 = icmp eq i32 %13, 0
  %14 = add i64 %1, -7
  %.029 = select i1 %.not31, i64 %14, i64 %1
  %.028.idx = select i1 %.not31, i64 7, i64 0
  %.028 = getelementptr inbounds i8, ptr %0, i64 %.028.idx
  store i64 0, ptr %10, align 8
  %15 = call i32 @phar_detect_phar_fname_ext(ptr noundef %.028, i64 noundef %.029, ptr noundef nonnull %9, ptr noundef nonnull %10, i32 noundef %6, i32 noundef %7, i32 noundef 0), !range !5
  %16 = icmp eq i32 %15, -1
  %.pre = load i64, ptr %10, align 8
  br i1 %16, label %17, label %21

17:                                               ; preds = %12
  %.not32 = icmp eq i64 %.pre, -1
  br i1 %.not32, label %21, label %18

18:                                               ; preds = %17
  %19 = load ptr, ptr %9, align 8
  %.not34 = icmp eq ptr %19, null
  br i1 %.not34, label %20, label %39

20:                                               ; preds = %18
  store ptr %.028, ptr %2, align 8
  br label %39

21:                                               ; preds = %17, %12
  %22 = phi i64 [ %.pre, %12 ], [ 0, %17 ]
  %23 = load ptr, ptr %9, align 8
  %24 = ptrtoint ptr %23 to i64
  %25 = ptrtoint ptr %.028 to i64
  %26 = sub i64 %24, %25
  %27 = add i64 %26, %22
  store i64 %27, ptr %3, align 8
  %28 = tail call noalias ptr @_estrndup(ptr noundef %.028, i64 noundef %27) #23
  store ptr %28, ptr %2, align 8
  %29 = getelementptr inbounds i8, ptr %23, i64 %22
  %30 = load i8, ptr %29, align 1
  %.not33 = icmp eq i8 %30, 0
  br i1 %.not33, label %36, label %31

31:                                               ; preds = %21
  %32 = load i64, ptr %3, align 8
  %33 = sub i64 %.029, %32
  store i64 %33, ptr %5, align 8
  %34 = tail call noalias ptr @_estrndup(ptr noundef nonnull %29, i64 noundef %33) #23
  store ptr %34, ptr %4, align 8
  %35 = tail call ptr @phar_fix_filepath(ptr noundef %34, ptr noundef nonnull %5, i32 noundef 0)
  br label %38

36:                                               ; preds = %21
  store i64 1, ptr %5, align 8
  %37 = tail call noalias ptr @_estrndup(ptr noundef nonnull @.str.15, i64 noundef 1) #23
  br label %38

38:                                               ; preds = %36, %31
  %storemerge = phi ptr [ %37, %36 ], [ %35, %31 ]
  store ptr %storemerge, ptr %4, align 8
  br label %39

39:                                               ; preds = %18, %20, %8, %38
  %.0 = phi i32 [ 0, %38 ], [ -1, %8 ], [ -1, %20 ], [ -1, %18 ]
  ret i32 %.0
}